target datalayout = "e-m:e-p270:32:32-p271:32:32-p272:64:64-i64:64-i128:128-f80:128-n8:16:32:64-S128"
target triple = "x86_64-pc-linux-gnu"

%"struct.open_spiel::GameType" = type <{ %"class.std::__cxx11::basic_string", %"class.std::__cxx11::basic_string", i32, i32, i32, i32, i32, i32, i32, i8, i8, i8, i8, %"class.std::map", i8, i8, [6 x i8] }>
%"class.std::__cxx11::basic_string" = type { %"struct.std::__cxx11::basic_string<char>::_Alloc_hider", i64, %union.anon }
%"struct.std::__cxx11::basic_string<char>::_Alloc_hider" = type { ptr }
%union.anon = type { i64, [8 x i8] }
%"class.std::map" = type { %"class.std::_Rb_tree" }
%"class.std::_Rb_tree" = type { %"struct.std::_Rb_tree<std::__cxx11::basic_string<char>, std::pair<const std::__cxx11::basic_string<char>, open_spiel::GameParameter>, std::_Select1st<std::pair<const std::__cxx11::basic_string<char>, open_spiel::GameParameter>>, std::less<std::__cxx11::basic_string<char>>>::_Rb_tree_impl" }
%"struct.std::_Rb_tree<std::__cxx11::basic_string<char>, std::pair<const std::__cxx11::basic_string<char>, open_spiel::GameParameter>, std::_Select1st<std::pair<const std::__cxx11::basic_string<char>, open_spiel::GameParameter>>, std::less<std::__cxx11::basic_string<char>>>::_Rb_tree_impl" = type { [8 x i8], %"struct.std::_Rb_tree_header" }
%"struct.std::_Rb_tree_header" = type { %"struct.std::_Rb_tree_node_base", i64 }
%"struct.std::_Rb_tree_node_base" = type { i32, ptr, ptr, ptr }
%"class.std::vector.9" = type { %"struct.std::_Vector_base.10" }
%"struct.std::_Vector_base.10" = type { %"struct.std::_Vector_base<std::__cxx11::basic_string<char>, std::allocator<std::__cxx11::basic_string<char>>>::_Vector_impl" }
%"struct.std::_Vector_base<std::__cxx11::basic_string<char>, std::allocator<std::__cxx11::basic_string<char>>>::_Vector_impl" = type { %"struct.std::_Vector_base<std::__cxx11::basic_string<char>, std::allocator<std::__cxx11::basic_string<char>>>::_Vector_impl_data" }
%"struct.std::_Vector_base<std::__cxx11::basic_string<char>, std::allocator<std::__cxx11::basic_string<char>>>::_Vector_impl_data" = type { ptr, ptr, ptr }
%"class.open_spiel::efg_game::EFGGame" = type { %"class.open_spiel::Game", %"class.std::__cxx11::basic_string", %"class.std::__cxx11::basic_string", i32, i32, %"class.std::vector.29", %"class.std::__cxx11::basic_string", %"class.std::__cxx11::basic_string", %"class.std::vector.9", i32, i32, i32, i32, %"class.absl::debian2::optional", %"class.absl::debian2::optional", %"class.absl::debian2::optional", i8, i8, i8, i8, %"class.std::vector.35", %"class.absl::debian2::flat_hash_map", %"class.absl::debian2::flat_hash_map.48", %"class.absl::debian2::flat_hash_map.59", %"class.absl::debian2::flat_hash_map.59" }
%"class.open_spiel::Game" = type { ptr, %"class.std::enable_shared_from_this", %"struct.open_spiel::GameType", %"class.std::map", %"class.std::map", %"class.absl::debian2::Mutex" }
%"class.std::enable_shared_from_this" = type { %"class.std::weak_ptr" }
%"class.std::weak_ptr" = type { %"class.std::__weak_ptr" }
%"class.std::__weak_ptr" = type { ptr, %"class.std::__weak_count" }
%"class.std::__weak_count" = type { ptr }
%"class.absl::debian2::Mutex" = type { %"struct.std::atomic" }
%"struct.std::atomic" = type { %"struct.std::__atomic_base" }
%"struct.std::__atomic_base" = type { i64 }
%"class.std::vector.29" = type { %"struct.std::_Vector_base.30" }
%"struct.std::_Vector_base.30" = type { %"struct.std::_Vector_base<std::unique_ptr<open_spiel::efg_game::Node>, std::allocator<std::unique_ptr<open_spiel::efg_game::Node>>>::_Vector_impl" }
%"struct.std::_Vector_base<std::unique_ptr<open_spiel::efg_game::Node>, std::allocator<std::unique_ptr<open_spiel::efg_game::Node>>>::_Vector_impl" = type { %"struct.std::_Vector_base<std::unique_ptr<open_spiel::efg_game::Node>, std::allocator<std::unique_ptr<open_spiel::efg_game::Node>>>::_Vector_impl_data" }
%"struct.std::_Vector_base<std::unique_ptr<open_spiel::efg_game::Node>, std::allocator<std::unique_ptr<open_spiel::efg_game::Node>>>::_Vector_impl_data" = type { ptr, ptr, ptr }
%"class.absl::debian2::optional" = type { %"class.absl::debian2::optional_internal::optional_data" }
%"class.absl::debian2::optional_internal::optional_data" = type { %"class.absl::debian2::optional_internal::optional_data_base" }
%"class.absl::debian2::optional_internal::optional_data_base" = type { %"class.absl::debian2::optional_internal::optional_data_dtor_base" }
%"class.absl::debian2::optional_internal::optional_data_dtor_base" = type { i8, %union.anon.34 }
%union.anon.34 = type { double }
%"class.std::vector.35" = type { %"struct.std::_Vector_base.36" }
%"struct.std::_Vector_base.36" = type { %"struct.std::_Vector_base<absl::debian2::flat_hash_map<int, int>, std::allocator<absl::debian2::flat_hash_map<int, int>>>::_Vector_impl" }
%"struct.std::_Vector_base<absl::debian2::flat_hash_map<int, int>, std::allocator<absl::debian2::flat_hash_map<int, int>>>::_Vector_impl" = type { %"struct.std::_Vector_base<absl::debian2::flat_hash_map<int, int>, std::allocator<absl::debian2::flat_hash_map<int, int>>>::_Vector_impl_data" }
%"struct.std::_Vector_base<absl::debian2::flat_hash_map<int, int>, std::allocator<absl::debian2::flat_hash_map<int, int>>>::_Vector_impl_data" = type { ptr, ptr, ptr }
%"class.absl::debian2::flat_hash_map" = type { %"class.absl::debian2::container_internal::raw_hash_map" }
%"class.absl::debian2::container_internal::raw_hash_map" = type { %"class.absl::debian2::container_internal::raw_hash_set" }
%"class.absl::debian2::container_internal::raw_hash_set" = type { ptr, ptr, i64, i64, %"class.absl::debian2::container_internal::CompressedTuple" }
%"class.absl::debian2::container_internal::CompressedTuple" = type { %"struct.absl::debian2::container_internal::internal_compressed_tuple::CompressedTupleImpl" }
%"struct.absl::debian2::container_internal::internal_compressed_tuple::CompressedTupleImpl" = type { %"struct.absl::debian2::container_internal::internal_compressed_tuple::Storage" }
%"struct.absl::debian2::container_internal::internal_compressed_tuple::Storage" = type { i64 }
%"class.absl::debian2::flat_hash_map.48" = type { %"class.absl::debian2::container_internal::raw_hash_map.49" }
%"class.absl::debian2::container_internal::raw_hash_map.49" = type { %"class.absl::debian2::container_internal::raw_hash_set.50" }
%"class.absl::debian2::container_internal::raw_hash_set.50" = type { ptr, ptr, i64, i64, %"class.absl::debian2::container_internal::CompressedTuple.51" }
%"class.absl::debian2::container_internal::CompressedTuple.51" = type { %"struct.absl::debian2::container_internal::internal_compressed_tuple::CompressedTupleImpl.52" }
%"struct.absl::debian2::container_internal::internal_compressed_tuple::CompressedTupleImpl.52" = type { %"struct.absl::debian2::container_internal::internal_compressed_tuple::Storage" }
%"class.absl::debian2::flat_hash_map.59" = type { %"class.absl::debian2::container_internal::raw_hash_map.60" }
%"class.absl::debian2::container_internal::raw_hash_map.60" = type { %"class.absl::debian2::container_internal::raw_hash_set.61" }
%"class.absl::debian2::container_internal::raw_hash_set.61" = type { ptr, ptr, i64, i64, %"class.absl::debian2::container_internal::CompressedTuple.62" }
%"class.absl::debian2::container_internal::CompressedTuple.62" = type { %"struct.absl::debian2::container_internal::internal_compressed_tuple::CompressedTupleImpl.63" }
%"struct.absl::debian2::container_internal::internal_compressed_tuple::CompressedTupleImpl.63" = type { %"struct.absl::debian2::container_internal::internal_compressed_tuple::Storage" }

@.str.6 = private unnamed_addr constant [136 x i8] c"generated/home/dtcxzyw/WorkSpace/Projects/compilers/llvm-opt-benchmark/bench/openspiel/open_spiel/open_spiel/games/efg_game/efg_game.cc\00", align 1
@.str.7 = private unnamed_addr constant [2 x i8] c":\00", align 1
@.str.8 = private unnamed_addr constant [2 x i8] c" \00", align 1
@.str.11 = private unnamed_addr constant [4 x i8] c" = \00", align 1
@.str.12 = private unnamed_addr constant [7 x i8] c", 1 = \00", align 1
@.str.63 = private unnamed_addr constant [10 x i8] c"line >= 1\00", align 1
@.str.64 = private unnamed_addr constant [6 x i8] c"\0Aline\00", align 1

; Function Attrs: mustprogress uwtable
define void @_ZNK10open_spiel8efg_game7EFGGame7GetLineB5cxx11Ei(ptr dead_on_unwind noalias writable sret(%"class.std::__cxx11::basic_string") align 8 %0, ptr noundef nonnull align 8 dereferenceable(720) %1, i32 noundef %2) #4 align 2 personality ptr @__gxx_personality_v0 {
  %4 = alloca ptr, align 8
  %5 = alloca ptr, align 8
  %6 = alloca i32, align 4
  %7 = alloca i32, align 4
  %8 = alloca i32, align 4
  %9 = alloca %"class.std::__cxx11::basic_string", align 8
  %10 = alloca i32, align 4
  %11 = alloca ptr, align 8
  %12 = alloca i32, align 4
  %13 = alloca i32, align 4
  %14 = alloca i32, align 4
  %15 = alloca i32, align 4
  %16 = alloca i1, align 1
  store ptr %0, ptr %4, align 8
  store ptr %1, ptr %5, align 8
  store i32 %2, ptr %6, align 4
  %17 = load ptr, ptr %5, align 8
  br label %18

18:                                               ; preds = %3
  %19 = load i32, ptr %6, align 4
  store i32 %19, ptr %7, align 4
  store i32 1, ptr %8, align 4
  %20 = load i32, ptr %7, align 4
  %21 = load i32, ptr %8, align 4
  %22 = icmp sge i32 %20, %21
  br i1 %22, label %29, label %23

23:                                               ; preds = %18
  store i32 459, ptr %10, align 4
  call void @_ZN10open_spiel8internal11SpielStrCatIJRA136_KcRA2_S2_iS6_RA10_S2_RA6_S2_RA4_S2_RiRA7_S2_SD_EEENSt7__cxx1112basic_stringIcSt11char_traitsIcESaIcEEEDpOT_(ptr dead_on_unwind writable sret(%"class.std::__cxx11::basic_string") align 8 %9, ptr noundef nonnull align 1 dereferenceable(136) @.str.6, ptr noundef nonnull align 1 dereferenceable(2) @.str.7, ptr noundef nonnull align 4 dereferenceable(4) %10, ptr noundef nonnull align 1 dereferenceable(2) @.str.8, ptr noundef nonnull align 1 dereferenceable(10) @.str.63, ptr noundef nonnull align 1 dereferenceable(6) @.str.64, ptr noundef nonnull align 1 dereferenceable(4) @.str.11, ptr noundef nonnull align 4 dereferenceable(4) %7, ptr noundef nonnull align 1 dereferenceable(7) @.str.12, ptr noundef nonnull align 4 dereferenceable(4) %8)
  invoke void @_ZN10open_spiel15SpielFatalErrorERKNSt7__cxx1112basic_stringIcSt11char_traitsIcESaIcEEE(ptr noundef nonnull align 8 dereferenceable(32) %9) #21
          to label %24 unwind label %25

24:                                               ; preds = %23
  unreachable

25:                                               ; preds = %23
  %26 = landingpad { ptr, i32 }
          cleanup
  %27 = extractvalue { ptr, i32 } %26, 0
  store ptr %27, ptr %11, align 8
  %28 = extractvalue { ptr, i32 } %26, 1
  store i32 %28, ptr %12, align 4
  call void @_ZNSt7__cxx1112basic_stringIcSt11char_traitsIcESaIcEED1Ev(ptr noundef nonnull align 8 dereferenceable(32) %9) #3
  br label %78

29:                                               ; preds = %18
  br label %30

30:                                               ; preds = %29
  store i32 1, ptr %13, align 4
  store i32 0, ptr %14, align 4
  %31 = getelementptr inbounds nuw %"class.open_spiel::efg_game::EFGGame", ptr %17, i32 0, i32 2
  %32 = call noundef i64 @_ZNKSt7__cxx1112basic_stringIcSt11char_traitsIcESaIcEE4sizeEv(ptr noundef nonnull align 8 dereferenceable(32) %31) #3
  %33 = trunc i64 %32 to i32
  store i32 %33, ptr %15, align 4
  store i1 false, ptr %16, align 1
  call void @_ZNSt7__cxx1112basic_stringIcSt11char_traitsIcESaIcEEC1Ev(ptr noundef nonnull align 8 dereferenceable(32) %0) #3
  br label %34

34:                                               ; preds = %72, %30
  %35 = load i32, ptr %13, align 4
  %36 = load i32, ptr %6, align 4
  %37 = icmp eq i32 %35, %36
  br i1 %37, label %38, label %49

38:                                               ; preds = %34
  %39 = getelementptr inbounds nuw %"class.open_spiel::efg_game::EFGGame", ptr %17, i32 0, i32 2
  %40 = load i32, ptr %14, align 4
  %41 = sext i32 %40 to i64
  %42 = call noundef nonnull align 1 dereferenceable(1) ptr @_ZNKSt7__cxx1112basic_stringIcSt11char_traitsIcESaIcEEixEm(ptr noundef nonnull align 8 dereferenceable(32) %39, i64 noundef %41) #3
  %43 = load i8, ptr %42, align 1
  invoke void @_ZNSt7__cxx1112basic_stringIcSt11char_traitsIcESaIcEE9push_backEc(ptr noundef nonnull align 8 dereferenceable(32) %0, i8 noundef signext %43)
          to label %44 unwind label %45

44:                                               ; preds = %38
  br label %49

45:                                               ; preds = %38
  %46 = landingpad { ptr, i32 }
          cleanup
  %47 = extractvalue { ptr, i32 } %46, 0
  store ptr %47, ptr %11, align 8
  %48 = extractvalue { ptr, i32 } %46, 1
  store i32 %48, ptr %12, align 4
  call void @_ZNSt7__cxx1112basic_stringIcSt11char_traitsIcESaIcEED1Ev(ptr noundef nonnull align 8 dereferenceable(32) %0) #3
  br label %78

49:                                               ; preds = %44, %34
  %50 = getelementptr inbounds nuw %"class.open_spiel::efg_game::EFGGame", ptr %17, i32 0, i32 2
  %51 = load i32, ptr %14, align 4
  %52 = sext i32 %51 to i64
  %53 = call noundef nonnull align 1 dereferenceable(1) ptr @_ZNKSt7__cxx1112basic_stringIcSt11char_traitsIcESaIcEEixEm(ptr noundef nonnull align 8 dereferenceable(32) %50, i64 noundef %52) #3
  %54 = load i8, ptr %53, align 1
  %55 = sext i8 %54 to i32
  %56 = icmp eq i32 %55, 10
  br i1 %56, label %57, label %60

57:                                               ; preds = %49
  %58 = load i32, ptr %13, align 4
  %59 = add nsw i32 %58, 1
  store i32 %59, ptr %13, align 4
  br label %60

60:                                               ; preds = %57, %49
  %61 = load i32, ptr %14, align 4
  %62 = add nsw i32 %61, 1
  store i32 %62, ptr %14, align 4
  br label %63

63:                                               ; preds = %60
  %64 = load i32, ptr %13, align 4
  %65 = load i32, ptr %6, align 4
  %66 = add nsw i32 %65, 1
  %67 = icmp ne i32 %64, %66
  br i1 %67, label %68, label %72

68:                                               ; preds = %63
  %69 = load i32, ptr %14, align 4
  %70 = load i32, ptr %15, align 4
  %71 = icmp slt i32 %69, %70
  br label %72

72:                                               ; preds = %68, %63
  %73 = phi i1 [ false, %63 ], [ %71, %68 ]
  br i1 %73, label %34, label %74, !llvm.loop !12

74:                                               ; preds = %72
  store i1 true, ptr %16, align 1
  %75 = load i1, ptr %16, align 1
  br i1 %75, label %77, label %76

76:                                               ; preds = %74
  call void @_ZNSt7__cxx1112basic_stringIcSt11char_traitsIcESaIcEED1Ev(ptr noundef nonnull align 8 dereferenceable(32) %0) #3
  br label %77

77:                                               ; preds = %76, %74
  ret void

78:                                               ; preds = %45, %25
  %79 = load ptr, ptr %11, align 8
  %80 = load i32, ptr %12, align 4
  %81 = insertvalue { ptr, i32 } poison, ptr %79, 0
  %82 = insertvalue { ptr, i32 } %81, i32 %80, 1
  resume { ptr, i32 } %82
}