; Function Attrs: mustprogress uwtable
define void @_ZNK10open_spiel8efg_game7EFGGame7GetLineB5cxx11Ei(ptr dead_on_unwind noalias writable sret(%"class.std::__cxx11::basic_string") align 8 %0, ptr noundef nonnull align 8 dereferenceable(720) %1, i32 noundef %2) local_unnamed_addr #3 align 2 personality ptr @__gxx_personality_v0 {
  %4 = alloca i32, align 4
  %5 = alloca i32, align 4
  %6 = alloca %"class.std::__cxx11::basic_string", align 8
  %7 = alloca i32, align 4
  store i32 %2, ptr %4, align 4
  store i32 1, ptr %5, align 4
  %8 = icmp sgt i32 %2, 0
  br i1 %8, label %13, label %9

9:                                                ; preds = %3
  store i32 459, ptr %7, align 4
  call void @_ZN10open_spiel8internal11SpielStrCatIJRA136_KcRA2_S2_iS6_RA10_S2_RA6_S2_RA4_S2_RiRA7_S2_SD_EEENSt7__cxx1112basic_stringIcSt11char_traitsIcESaIcEEEDpOT_(ptr dead_on_unwind nonnull writable sret(%"class.std::__cxx11::basic_string") align 8 %6, ptr noundef nonnull align 1 dereferenceable(136) @.str.6, ptr noundef nonnull align 1 dereferenceable(2) @.str.7, ptr noundef nonnull align 4 dereferenceable(4) %7, ptr noundef nonnull align 1 dereferenceable(2) @.str.8, ptr noundef nonnull align 1 dereferenceable(10) @.str.63, ptr noundef nonnull align 1 dereferenceable(6) @.str.64, ptr noundef nonnull align 1 dereferenceable(4) @.str.11, ptr noundef nonnull align 4 dereferenceable(4) %4, ptr noundef nonnull align 1 dereferenceable(7) @.str.12, ptr noundef nonnull align 4 dereferenceable(4) %5)
  invoke void @_ZN10open_spiel15SpielFatalErrorERKNSt7__cxx1112basic_stringIcSt11char_traitsIcESaIcEEE(ptr noundef nonnull align 8 dereferenceable(32) %6) #28
          to label %10 unwind label %11

10:                                               ; preds = %9
  unreachable

11:                                               ; preds = %9
  %12 = landingpad { ptr, i32 }
          cleanup
  call void @_ZNSt7__cxx1112basic_stringIcSt11char_traitsIcESaIcEED1Ev(ptr noundef nonnull align 8 dereferenceable(32) %6) #29
  br label %34

13:                                               ; preds = %3
  %14 = getelementptr inbounds nuw i8, ptr %1, i64 312
  %15 = tail call noundef i64 @_ZNKSt7__cxx1112basic_stringIcSt11char_traitsIcESaIcEE4sizeEv(ptr noundef nonnull align 8 dereferenceable(32) %14) #29
  tail call void @_ZNSt7__cxx1112basic_stringIcSt11char_traitsIcESaIcEEC1Ev(ptr noundef nonnull align 8 dereferenceable(32) %0) #29
  %16 = add nuw nsw i32 %2, 1
  %sext = shl i64 %15, 32
  %17 = ashr exact i64 %sext, 32
  br label %18

18:                                               ; preds = %25, %13
  %indvars.iv = phi i64 [ %indvars.iv.next, %25 ], [ 0, %13 ]
  %.015 = phi i32 [ %spec.select, %25 ], [ 1, %13 ]
  %19 = icmp eq i32 %.015, %2
  br i1 %19, label %20, label %25

20:                                               ; preds = %18
  %21 = tail call noundef nonnull align 1 dereferenceable(1) ptr @_ZNKSt7__cxx1112basic_stringIcSt11char_traitsIcESaIcEEixEm(ptr noundef nonnull align 8 dereferenceable(32) %14, i64 noundef %indvars.iv) #29
  %22 = load i8, ptr %21, align 1
  invoke void @_ZNSt7__cxx1112basic_stringIcSt11char_traitsIcESaIcEE9push_backEc(ptr noundef nonnull align 8 dereferenceable(32) %0, i8 noundef signext %22)
          to label %25 unwind label %23

23:                                               ; preds = %20
  %24 = landingpad { ptr, i32 }
          cleanup
  tail call void @_ZNSt7__cxx1112basic_stringIcSt11char_traitsIcESaIcEED1Ev(ptr noundef nonnull align 8 dereferenceable(32) %0) #29
  br label %34

25:                                               ; preds = %20, %18
  %26 = tail call noundef nonnull align 1 dereferenceable(1) ptr @_ZNKSt7__cxx1112basic_stringIcSt11char_traitsIcESaIcEEixEm(ptr noundef nonnull align 8 dereferenceable(32) %14, i64 noundef %indvars.iv) #29
  %27 = load i8, ptr %26, align 1
  %28 = icmp eq i8 %27, 10
  %29 = zext i1 %28 to i32
  %spec.select = add nuw nsw i32 %.015, %29
  %indvars.iv.next = add nuw nsw i64 %indvars.iv, 1
  %30 = icmp ne i32 %spec.select, %16
  %31 = icmp slt i64 %indvars.iv.next, %17
  %32 = select i1 %30, i1 %31, i1 false
  br i1 %32, label %18, label %33, !llvm.loop !49

33:                                               ; preds = %25
  ret void

34:                                               ; preds = %23, %11
  %.pn = phi { ptr, i32 } [ %24, %23 ], [ %12, %11 ]
  resume { ptr, i32 } %.pn
}